; Function Attrs: mustprogress uwtable
define internal noundef range(i32 0, 2) i32 @_ZN11flatbuffers12_GLOBAL__N_117RustCodeGenerator12GenerateCodeERKNS_6ParserERKNSt7__cxx1112basic_stringIcSt11char_traitsIcESaIcEEESC_(ptr nonnull readnone align 8 captures(none) %0, ptr noundef nonnull align 8 dereferenceable(1920) %1, ptr noundef nonnull align 8 dereferenceable(32) %2, ptr noundef nonnull align 8 dereferenceable(32) %3) unnamed_addr #0 align 2 personality ptr @__gxx_personality_v0 {
  %5 = alloca %"class.flatbuffers::rust::RustGenerator", align 8
  call void @llvm.lifetime.start.p0(i64 1008, ptr nonnull %5) #27
  call void @_ZN11flatbuffers4rust13RustGeneratorC2ERKNS_6ParserERKNSt7__cxx1112basic_stringIcSt11char_traitsIcESaIcEEESC_(ptr noundef nonnull align 8 dereferenceable(1008) %5, ptr noundef nonnull align 8 dereferenceable(1920) %1, ptr noundef nonnull align 8 dereferenceable(32) %2, ptr noundef nonnull align 8 dereferenceable(32) %3)
  %6 = getelementptr inbounds nuw i8, ptr %5, i64 8
  %7 = load ptr, ptr %6, align 8, !tbaa !20
  %8 = getelementptr inbounds nuw i8, ptr %7, i64 1662
  %9 = load i8, ptr %8, align 2, !tbaa !24, !range !135, !noundef !136
  %10 = trunc nuw i8 %9 to i1
  br i1 %10, label %13, label %11

11:                                               ; preds = %4
  %12 = invoke noundef zeroext i1 @_ZN11flatbuffers4rust13RustGenerator15GenerateOneFileEv(ptr noundef nonnull align 8 dereferenceable(1008) %5)
          to label %_ZN11flatbuffersL12GenerateRustERKNS_6ParserERKNSt7__cxx1112basic_stringIcSt11char_traitsIcESaIcEEESA_.exit unwind label %15

13:                                               ; preds = %4
  %14 = invoke noundef zeroext i1 @_ZN11flatbuffers4rust13RustGenerator23GenerateIndividualFilesEv(ptr noundef nonnull align 8 dereferenceable(1008) %5)
          to label %_ZN11flatbuffersL12GenerateRustERKNS_6ParserERKNSt7__cxx1112basic_stringIcSt11char_traitsIcESaIcEEESA_.exit unwind label %15

15:                                               ; preds = %13, %11
  %16 = landingpad { ptr, i32 }
          cleanup
  call void @_ZN11flatbuffers4rust13RustGeneratorD2Ev(ptr noundef nonnull align 8 dereferenceable(1008) %5) #27
  call void @llvm.lifetime.end.p0(i64 1008, ptr nonnull %5) #27
  resume { ptr, i32 } %16

_ZN11flatbuffersL12GenerateRustERKNS_6ParserERKNSt7__cxx1112basic_stringIcSt11char_traitsIcESaIcEEESA_.exit: ; preds = %11, %13
  %.0.i.i = phi i1 [ %12, %11 ], [ %14, %13 ]
  call void @_ZN11flatbuffers4rust13RustGeneratorD2Ev(ptr noundef nonnull align 8 dereferenceable(1008) %5) #27
  call void @llvm.lifetime.end.p0(i64 1008, ptr nonnull %5) #27
  %not..0.i.i = xor i1 %.0.i.i, true
  %. = zext i1 %not..0.i.i to i32
  ret i32 %.
}